; ModuleID = '31/782.c'
source_filename = "31/782.c"
target datalayout = "e-m:e-p270:32:32-p271:32:32-p272:64:64-i64:64-f80:128-n8:16:32:64-S128"
target triple = "x86_64-pc-linux-gnu"

%struct.L = type { [6 x [20 x i8]], %struct.L*, %struct.L* }

@.str = private unnamed_addr constant [3 x i8] c"%s\00", align 1
@.str.1 = private unnamed_addr constant [4 x i8] c" %s\00", align 1
@.str.2 = private unnamed_addr constant [2 x i8] c"\0A\00", align 1

; Function Attrs: noinline nounwind uwtable
define dso_local %struct.L* @creat() #0 {
  %1 = alloca %struct.L*, align 8
  %2 = alloca %struct.L*, align 8
  %3 = alloca %struct.L*, align 8
  %4 = alloca %struct.L*, align 8
  %5 = alloca %struct.L*, align 8
  %6 = alloca i32, align 4
  %7 = alloca i32, align 4
  %8 = alloca i32, align 4
  %9 = alloca i32, align 4
  store i32 136, i32* %9, align 4
  %10 = load i32, i32* %9, align 4
  %11 = sext i32 %10 to i64
  %12 = call noalias i8* @malloc(i64 %11) #3
  %13 = bitcast i8* %12 to %struct.L*
  store %struct.L* %13, %struct.L** %4, align 8
  store %struct.L* %13, %struct.L** %1, align 8
  %14 = load %struct.L*, %struct.L** %1, align 8
  %15 = getelementptr inbounds %struct.L, %struct.L* %14, i32 0, i32 1
  store %struct.L* null, %struct.L** %15, align 8
  br label %16

16:                                               ; preds = %43, %0
  store i32 0, i32* %6, align 4
  br label %17

17:                                               ; preds = %28, %16
  %18 = load i32, i32* %6, align 4
  %19 = icmp slt i32 %18, 6
  br i1 %19, label %20, label %31

20:                                               ; preds = %17
  %21 = load %struct.L*, %struct.L** %1, align 8
  %22 = getelementptr inbounds %struct.L, %struct.L* %21, i32 0, i32 0
  %23 = load i32, i32* %6, align 4
  %24 = sext i32 %23 to i64
  %25 = getelementptr inbounds [6 x [20 x i8]], [6 x [20 x i8]]* %22, i64 0, i64 %24
  %26 = getelementptr inbounds [20 x i8], [20 x i8]* %25, i64 0, i64 0
  %27 = call i32 (i8*, ...) @__isoc99_scanf(i8* getelementptr inbounds ([3 x i8], [3 x i8]* @.str, i64 0, i64 0), i8* %26)
  br label %28

28:                                               ; preds = %20
  %29 = load i32, i32* %6, align 4
  %30 = add nsw i32 %29, 1
  store i32 %30, i32* %6, align 4
  br label %17

31:                                               ; preds = %17
  %32 = load i32, i32* %9, align 4
  %33 = sext i32 %32 to i64
  %34 = call noalias i8* @malloc(i64 %33) #3
  %35 = bitcast i8* %34 to %struct.L*
  store %struct.L* %35, %struct.L** %2, align 8
  %36 = load %struct.L*, %struct.L** %1, align 8
  %37 = load %struct.L*, %struct.L** %2, align 8
  %38 = getelementptr inbounds %struct.L, %struct.L* %37, i32 0, i32 1
  store %struct.L* %36, %struct.L** %38, align 8
  store %struct.L* %36, %struct.L** %3, align 8
  %39 = load %struct.L*, %struct.L** %2, align 8
  %40 = load %struct.L*, %struct.L** %1, align 8
  %41 = getelementptr inbounds %struct.L, %struct.L* %40, i32 0, i32 2
  store %struct.L* %39, %struct.L** %41, align 8
  %42 = load %struct.L*, %struct.L** %2, align 8
  store %struct.L* %42, %struct.L** %1, align 8
  br label %43

43:                                               ; preds = %31
  %44 = load %struct.L*, %struct.L** %3, align 8
  %45 = getelementptr inbounds %struct.L, %struct.L* %44, i32 0, i32 0
  %46 = getelementptr inbounds [6 x [20 x i8]], [6 x [20 x i8]]* %45, i64 0, i64 0
  %47 = getelementptr inbounds [20 x i8], [20 x i8]* %46, i64 0, i64 0
  %48 = load i8, i8* %47, align 8
  %49 = sext i8 %48 to i32
  %50 = icmp ne i32 %49, 101
  br i1 %50, label %16, label %51

51:                                               ; preds = %43
  %52 = load %struct.L*, %struct.L** %3, align 8
  %53 = getelementptr inbounds %struct.L, %struct.L* %52, i32 0, i32 1
  %54 = load %struct.L*, %struct.L** %53, align 8
  ret %struct.L* %54
}

; Function Attrs: nounwind
declare dso_local noalias i8* @malloc(i64) #1

declare dso_local i32 @__isoc99_scanf(i8*, ...) #2

; Function Attrs: noinline nounwind uwtable
define dso_local i32 @main() #0 {
  %1 = alloca i32, align 4
  %2 = alloca i32, align 4
  %3 = alloca i32, align 4
  %4 = alloca %struct.L*, align 8
  %5 = alloca %struct.L*, align 8
  %6 = alloca %struct.L*, align 8
  store i32 0, i32* %1, align 4
  %7 = call %struct.L* @creat()
  store %struct.L* %7, %struct.L** %4, align 8
  store %struct.L* %7, %struct.L** %5, align 8
  br label %8

8:                                                ; preds = %38, %0
  store i32 0, i32* %2, align 4
  br label %9

9:                                                ; preds = %30, %8
  %10 = load i32, i32* %2, align 4
  %11 = icmp slt i32 %10, 6
  br i1 %11, label %12, label %33

12:                                               ; preds = %9
  %13 = load i32, i32* %2, align 4
  %14 = icmp eq i32 %13, 0
  br i1 %14, label %15, label %21

15:                                               ; preds = %12
  %16 = load %struct.L*, %struct.L** %5, align 8
  %17 = getelementptr inbounds %struct.L, %struct.L* %16, i32 0, i32 0
  %18 = getelementptr inbounds [6 x [20 x i8]], [6 x [20 x i8]]* %17, i64 0, i64 0
  %19 = getelementptr inbounds [20 x i8], [20 x i8]* %18, i64 0, i64 0
  %20 = call i32 (i8*, ...) @printf(i8* getelementptr inbounds ([3 x i8], [3 x i8]* @.str, i64 0, i64 0), i8* %19)
  br label %29

21:                                               ; preds = %12
  %22 = load %struct.L*, %struct.L** %5, align 8
  %23 = getelementptr inbounds %struct.L, %struct.L* %22, i32 0, i32 0
  %24 = load i32, i32* %2, align 4
  %25 = sext i32 %24 to i64
  %26 = getelementptr inbounds [6 x [20 x i8]], [6 x [20 x i8]]* %23, i64 0, i64 %25
  %27 = getelementptr inbounds [20 x i8], [20 x i8]* %26, i64 0, i64 0
  %28 = call i32 (i8*, ...) @printf(i8* getelementptr inbounds ([4 x i8], [4 x i8]* @.str.1, i64 0, i64 0), i8* %27)
  br label %29

29:                                               ; preds = %21, %15
  br label %30

30:                                               ; preds = %29
  %31 = load i32, i32* %2, align 4
  %32 = add nsw i32 %31, 1
  store i32 %32, i32* %2, align 4
  br label %9

33:                                               ; preds = %9
  %34 = call i32 (i8*, ...) @printf(i8* getelementptr inbounds ([2 x i8], [2 x i8]* @.str.2, i64 0, i64 0))
  %35 = load %struct.L*, %struct.L** %5, align 8
  %36 = getelementptr inbounds %struct.L, %struct.L* %35, i32 0, i32 1
  %37 = load %struct.L*, %struct.L** %36, align 8
  store %struct.L* %37, %struct.L** %5, align 8
  br label %38

38:                                               ; preds = %33
  %39 = load %struct.L*, %struct.L** %5, align 8
  %40 = icmp ne %struct.L* %39, null
  br i1 %40, label %8, label %41

41:                                               ; preds = %38
  %42 = load i32, i32* %1, align 4
  ret i32 %42
}

declare dso_local i32 @printf(i8*, ...) #2


!llvm.module.flags = !{!0}
!llvm.ident = !{!1}

!0 = !{i32 1, !"wchar_size", i32 4}
!1 = !{!"clang version 10.0.0-4ubuntu1 "}
